target datalayout = "e-m:e-p270:32:32-p271:32:32-p272:64:64-i64:64-i128:128-f80:128-n8:16:32:64-S128"
target triple = "x86_64-pc-linux-gnu"

%struct.Abc_Frame_t_ = type { ptr, ptr, ptr, ptr, ptr, ptr, ptr, ptr, ptr, ptr, i32, i32, i32, i32, i32, ptr, float, float, i32, i32, ptr, ptr, ptr, double, double, ptr, ptr, ptr, ptr, ptr, ptr, ptr, ptr, ptr, ptr, ptr, ptr, float, ptr, i32, ptr, ptr, ptr, ptr, ptr, i32, i32, i32, i32, i32, i32, ptr, ptr, ptr, ptr, ptr, ptr, i32, i32, ptr, ptr, ptr, ptr, ptr, ptr, ptr, ptr, ptr, ptr, ptr, ptr, ptr, ptr, ptr, ptr, ptr, ptr, ptr, ptr, ptr, ptr, ptr, ptr, ptr, ptr, ptr, ptr, ptr, ptr }

@.str.25 = private unnamed_addr constant [4 x i8] c"yes\00", align 1
@.str.26 = private unnamed_addr constant [3 x i8] c"no\00", align 1
@.str.34 = private unnamed_addr constant [62 x i8] c"\09-v     : toggle printing verbose information [default = %s]\0A\00", align 1
@.str.35 = private unnamed_addr constant [35 x i8] c"\09-h     : print the command usage\0A\00", align 1
@.str.39 = private unnamed_addr constant [28 x i8] c"The design is not entered.\0A\00", align 1
@.str.54 = private unnamed_addr constant [5 x i8] c"pdvh\00", align 1
@.str.55 = private unnamed_addr constant [24 x i8] c"usage: %%print [-pdvh]\0A\00", align 1
@.str.56 = private unnamed_addr constant [58 x i8] c"\09         print statistics about the hierarchical design\0A\00", align 1
@.str.57 = private unnamed_addr constant [59 x i8] c"\09-p     : toggle printing of the hierarchy [default = %s]\0A\00", align 1
@.str.58 = private unnamed_addr constant [56 x i8] c"\09-d     : toggle printing of the design [default = %s]\0A\00", align 1
@.str.59 = private unnamed_addr constant [52 x i8] c"\09<file> : text file name with guidance for solving\0A\00", align 1

; Function Attrs: inlinehint nounwind uwtable
define internal ptr @Wln_AbcGetRtl(ptr noundef %0) #2 {
  %2 = alloca ptr, align 8
  store ptr %0, ptr %2, align 8, !tbaa !3
  %3 = load ptr, ptr %2, align 8, !tbaa !3
  %4 = getelementptr inbounds nuw %struct.Abc_Frame_t_, ptr %3, i32 0, i32 73
  %5 = load ptr, ptr %4, align 8, !tbaa !26
  ret ptr %5
}

; Function Attrs: nounwind uwtable
define internal i32 @Abc_CommandPrint(ptr noundef %0, i32 noundef %1, ptr noundef %2) #0 {
  %4 = alloca i32, align 4
  %5 = alloca ptr, align 8
  %6 = alloca i32, align 4
  %7 = alloca ptr, align 8
  %8 = alloca ptr, align 8
  %9 = alloca i32, align 4
  %10 = alloca i32, align 4
  %11 = alloca i32, align 4
  %12 = alloca i32, align 4
  %13 = alloca i32, align 4
  store ptr %0, ptr %5, align 8, !tbaa !3
  store i32 %1, ptr %6, align 4, !tbaa !8
  store ptr %2, ptr %7, align 8, !tbaa !10
  call void @llvm.lifetime.start.p0(i64 8, ptr %8) #7
  %14 = load ptr, ptr %5, align 8, !tbaa !3
  %15 = call ptr @Wln_AbcGetRtl(ptr noundef %14)
  store ptr %15, ptr %8, align 8, !tbaa !20
  call void @llvm.lifetime.start.p0(i64 4, ptr %9) #7
  call void @llvm.lifetime.start.p0(i64 4, ptr %10) #7
  store i32 0, ptr %10, align 4, !tbaa !8
  call void @llvm.lifetime.start.p0(i64 4, ptr %11) #7
  store i32 0, ptr %11, align 4, !tbaa !8
  call void @llvm.lifetime.start.p0(i64 4, ptr %12) #7
  store i32 0, ptr %12, align 4, !tbaa !8
  call void (...) @Extra_UtilGetoptReset()
  br label %16

16:                                               ; preds = %34, %3
  %17 = load i32, ptr %6, align 4, !tbaa !8
  %18 = load ptr, ptr %7, align 8, !tbaa !10
  %19 = call i32 @Extra_UtilGetopt(i32 noundef %17, ptr noundef %18, ptr noundef @.str.54)
  store i32 %19, ptr %9, align 4, !tbaa !8
  %20 = icmp ne i32 %19, -1
  br i1 %20, label %21, label %35

21:                                               ; preds = %16
  %22 = load i32, ptr %9, align 4, !tbaa !8
  switch i32 %22, label %33 [
    i32 112, label %23
    i32 100, label %26
    i32 118, label %29
    i32 104, label %32
  ]

23:                                               ; preds = %21
  %24 = load i32, ptr %10, align 4, !tbaa !8
  %25 = xor i32 %24, 1
  store i32 %25, ptr %10, align 4, !tbaa !8
  br label %34

26:                                               ; preds = %21
  %27 = load i32, ptr %11, align 4, !tbaa !8
  %28 = xor i32 %27, 1
  store i32 %28, ptr %11, align 4, !tbaa !8
  br label %34

29:                                               ; preds = %21
  %30 = load i32, ptr %12, align 4, !tbaa !8
  %31 = xor i32 %30, 1
  store i32 %31, ptr %12, align 4, !tbaa !8
  br label %34

32:                                               ; preds = %21
  br label %52

33:                                               ; preds = %21
  br label %52

34:                                               ; preds = %29, %26, %23
  br label %16, !llvm.loop !25

35:                                               ; preds = %16
  %36 = load ptr, ptr %8, align 8, !tbaa !20
  %37 = icmp eq ptr %36, null
  br i1 %37, label %38, label %40

38:                                               ; preds = %35
  %39 = call i32 (ptr, ...) @printf(ptr noundef @.str.39)
  store i32 1, ptr %4, align 4
  store i32 1, ptr %13, align 4
  br label %62

40:                                               ; preds = %35
  %41 = load ptr, ptr %8, align 8, !tbaa !20
  call void @Rtl_LibPrintStats(ptr noundef %41)
  %42 = load i32, ptr %10, align 4, !tbaa !8
  %43 = icmp ne i32 %42, 0
  br i1 %43, label %44, label %46

44:                                               ; preds = %40
  %45 = load ptr, ptr %8, align 8, !tbaa !20
  call void @Rtl_LibPrintHieStats(ptr noundef %45)
  br label %46

46:                                               ; preds = %44, %40
  %47 = load i32, ptr %11, align 4, !tbaa !8
  %48 = icmp ne i32 %47, 0
  br i1 %48, label %49, label %51

49:                                               ; preds = %46
  %50 = load ptr, ptr %8, align 8, !tbaa !20
  call void @Rtl_LibPrint(ptr noundef null, ptr noundef %50)
  br label %51

51:                                               ; preds = %49, %46
  store i32 0, ptr %4, align 4
  store i32 1, ptr %13, align 4
  br label %62

52:                                               ; preds = %33, %32
  call void (i32, ptr, ...) @Abc_Print(i32 noundef -2, ptr noundef @.str.55)
  call void (i32, ptr, ...) @Abc_Print(i32 noundef -2, ptr noundef @.str.56)
  %53 = load i32, ptr %10, align 4, !tbaa !8
  %54 = icmp ne i32 %53, 0
  %55 = select i1 %54, ptr @.str.25, ptr @.str.26
  call void (i32, ptr, ...) @Abc_Print(i32 noundef -2, ptr noundef @.str.57, ptr noundef %55)
  %56 = load i32, ptr %11, align 4, !tbaa !8
  %57 = icmp ne i32 %56, 0
  %58 = select i1 %57, ptr @.str.25, ptr @.str.26
  call void (i32, ptr, ...) @Abc_Print(i32 noundef -2, ptr noundef @.str.58, ptr noundef %58)
  %59 = load i32, ptr %12, align 4, !tbaa !8
  %60 = icmp ne i32 %59, 0
  %61 = select i1 %60, ptr @.str.25, ptr @.str.26
  call void (i32, ptr, ...) @Abc_Print(i32 noundef -2, ptr noundef @.str.34, ptr noundef %61)
  call void (i32, ptr, ...) @Abc_Print(i32 noundef -2, ptr noundef @.str.35)
  call void (i32, ptr, ...) @Abc_Print(i32 noundef -2, ptr noundef @.str.59)
  store i32 1, ptr %4, align 4
  store i32 1, ptr %13, align 4
  br label %62

62:                                               ; preds = %52, %51, %38
  call void @llvm.lifetime.end.p0(i64 4, ptr %12) #7
  call void @llvm.lifetime.end.p0(i64 4, ptr %11) #7
  call void @llvm.lifetime.end.p0(i64 4, ptr %10) #7
  call void @llvm.lifetime.end.p0(i64 4, ptr %9) #7
  call void @llvm.lifetime.end.p0(i64 8, ptr %8) #7
  %63 = load i32, ptr %4, align 4
  ret i32 %63
}