; Function Attrs: nounwind uwtable
define internal range(i32 0, 2) i32 @Abc_CommandPrint(ptr noundef readonly captures(none) %0, i32 noundef %1, ptr noundef %2) #0 {
  %4 = getelementptr i8, ptr %0, i64 520
  %.val = load ptr, ptr %4, align 8, !tbaa !12
  tail call void (...) @Extra_UtilGetoptReset() #10
  %5 = tail call i32 @Extra_UtilGetopt(i32 noundef %1, ptr noundef %2, ptr noundef nonnull @.str.54) #10
  %.not31 = icmp eq i32 %5, -1
  br i1 %.not31, label %._crit_edge.thread, label %.lr.ph

.lr.ph:                                           ; preds = %3, %15
  %6 = phi i32 [ %16, %15 ], [ %5, %3 ]
  %.034 = phi i32 [ %.1, %15 ], [ 0, %3 ]
  %.01633 = phi i32 [ %.117, %15 ], [ 0, %3 ]
  %.01832 = phi i32 [ %.119, %15 ], [ 0, %3 ]
  %7 = add i32 %6, -100
  %8 = tail call i32 @llvm.fshl.i32(i32 %7, i32 %7, i32 31)
  switch i32 %8, label %26 [
    i32 6, label %9
    i32 0, label %11
    i32 9, label %13
  ]

9:                                                ; preds = %.lr.ph
  %10 = xor i32 %.01832, 1
  br label %15

11:                                               ; preds = %.lr.ph
  %12 = xor i32 %.01633, 1
  br label %15

13:                                               ; preds = %.lr.ph
  %14 = xor i32 %.034, 1
  br label %15

15:                                               ; preds = %13, %11, %9
  %.119 = phi i32 [ %.01832, %13 ], [ %.01832, %11 ], [ %10, %9 ]
  %.117 = phi i32 [ %.01633, %13 ], [ %12, %11 ], [ %.01633, %9 ]
  %.1 = phi i32 [ %14, %13 ], [ %.034, %11 ], [ %.034, %9 ]
  %16 = tail call i32 @Extra_UtilGetopt(i32 noundef %1, ptr noundef %2, ptr noundef nonnull @.str.54) #10
  %.not = icmp eq i32 %16, -1
  br i1 %.not, label %._crit_edge, label %.lr.ph, !llvm.loop !30

._crit_edge:                                      ; preds = %15
  %17 = icmp eq i32 %.117, 0
  %18 = icmp eq ptr %.val, null
  br i1 %18, label %20, label %21

._crit_edge.thread:                               ; preds = %3
  %19 = icmp eq ptr %.val, null
  br i1 %19, label %20, label %.thread46

.thread46:                                        ; preds = %._crit_edge.thread
  tail call void @Rtl_LibPrintStats(ptr noundef nonnull %.val) #10
  br label %30

20:                                               ; preds = %._crit_edge.thread, %._crit_edge
  %puts = tail call i32 @puts(ptr nonnull dereferenceable(1) @str.6)
  br label %30

21:                                               ; preds = %._crit_edge
  %22 = icmp eq i32 %.119, 0
  tail call void @Rtl_LibPrintStats(ptr noundef nonnull %.val) #10
  br i1 %22, label %24, label %23

23:                                               ; preds = %21
  tail call void @Rtl_LibPrintHieStats(ptr noundef nonnull %.val) #10
  br i1 %17, label %30, label %25

24:                                               ; preds = %21
  br i1 %17, label %30, label %25

25:                                               ; preds = %23, %24
  tail call void @Rtl_LibPrint(ptr noundef null, ptr noundef nonnull %.val) #10
  br label %30

26:                                               ; preds = %.lr.ph
  tail call void (i32, ptr, ...) @Abc_Print(i32 noundef -2, ptr noundef nonnull @.str.55)
  tail call void (i32, ptr, ...) @Abc_Print(i32 noundef -2, ptr noundef nonnull @.str.56)
  %.not25 = icmp eq i32 %.01832, 0
  %27 = select i1 %.not25, ptr @.str.26, ptr @.str.25
  tail call void (i32, ptr, ...) @Abc_Print(i32 noundef -2, ptr noundef nonnull @.str.57, ptr noundef nonnull %27)
  %.not26 = icmp eq i32 %.01633, 0
  %28 = select i1 %.not26, ptr @.str.26, ptr @.str.25
  tail call void (i32, ptr, ...) @Abc_Print(i32 noundef -2, ptr noundef nonnull @.str.58, ptr noundef nonnull %28)
  %.not27 = icmp eq i32 %.034, 0
  %29 = select i1 %.not27, ptr @.str.26, ptr @.str.25
  tail call void (i32, ptr, ...) @Abc_Print(i32 noundef -2, ptr noundef nonnull @.str.34, ptr noundef nonnull %29)
  tail call void (i32, ptr, ...) @Abc_Print(i32 noundef -2, ptr noundef nonnull @.str.35)
  tail call void (i32, ptr, ...) @Abc_Print(i32 noundef -2, ptr noundef nonnull @.str.59)
  br label %30

30:                                               ; preds = %23, %.thread46, %24, %25, %26, %20
  %.020 = phi i32 [ 1, %26 ], [ 1, %20 ], [ 0, %25 ], [ 0, %24 ], [ 0, %.thread46 ], [ 0, %23 ]
  ret i32 %.020
}